target datalayout = "e-m:e-p270:32:32-p271:32:32-p272:64:64-i64:64-i128:128-f80:128-n8:16:32:64-S128"
target triple = "x86_64-pc-linux-gnu"

%struct.uv__queue = type { ptr, ptr }
%struct.uv_loop_s = type { ptr, i32, %struct.uv__queue, %union.anon.1, ptr, i32, i64, i32, %struct.uv__queue, %struct.uv__queue, ptr, i32, i32, %struct.uv__queue, %union.pthread_mutex_t, %struct.uv_async_s, %union.pthread_rwlock_t, ptr, %struct.uv__queue, %struct.uv__queue, %struct.uv__queue, %struct.uv__queue, %struct.uv__queue, ptr, %struct.uv__io_s, i32, %struct.anon, i64, i64, [2 x i32], %struct.uv__io_s, %struct.uv_signal_s, i32, %struct.uv__io_s, ptr, i32 }
%union.anon.1 = type { ptr }
%union.pthread_mutex_t = type { %struct.__pthread_mutex_s }
%struct.__pthread_mutex_s = type { i32, i32, i32, i32, i32, i16, i16, %struct.__pthread_internal_list }
%struct.__pthread_internal_list = type { ptr, ptr }
%struct.uv_async_s = type { ptr, ptr, i32, ptr, %struct.uv__queue, %union.anon.2, ptr, i32, ptr, %struct.uv__queue, i32 }
%union.anon.2 = type { [4 x ptr] }
%union.pthread_rwlock_t = type { %struct.__pthread_rwlock_arch_t }
%struct.__pthread_rwlock_arch_t = type { i32, i32, i32, i32, i32, i32, i32, i32, i8, [7 x i8], i64, i32 }
%struct.anon = type { ptr, i32 }
%struct.uv_signal_s = type { ptr, ptr, i32, ptr, %struct.uv__queue, %union.anon.3, ptr, i32, ptr, i32, %struct.anon.4, i32, i32 }
%union.anon.3 = type { [4 x ptr] }
%struct.anon.4 = type { ptr, ptr, ptr, i32 }
%struct.uv__io_s = type { ptr, %struct.uv__queue, %struct.uv__queue, i32, i32, i32 }
%struct.uv_poll_s = type { ptr, ptr, i32, ptr, %struct.uv__queue, %union.anon, ptr, i32, ptr, %struct.uv__io_s }
%union.anon = type { [4 x ptr] }

; Function Attrs: nounwind uwtable
define internal void @uv__poll_io(ptr noundef %0, ptr noundef %1, i32 noundef %2) #0 {
  %4 = alloca ptr, align 8
  %5 = alloca ptr, align 8
  %6 = alloca i32, align 4
  %7 = alloca ptr, align 8
  %8 = alloca i32, align 4
  %9 = alloca i32, align 4
  store ptr %0, ptr %4, align 8
  store ptr %1, ptr %5, align 8
  store i32 %2, ptr %6, align 4
  call void @llvm.lifetime.start.p0(i64 8, ptr %7) #4
  call void @llvm.lifetime.start.p0(i64 4, ptr %8) #4
  %10 = load ptr, ptr %5, align 8
  %11 = getelementptr inbounds i8, ptr %10, i64 -104
  store ptr %11, ptr %7, align 8
  %12 = load i32, ptr %6, align 4
  %13 = and i32 %12, 8
  %14 = icmp ne i32 %13, 0
  br i1 %14, label %15, label %56

15:                                               ; preds = %3
  %16 = load i32, ptr %6, align 4
  %17 = and i32 %16, 2
  %18 = icmp ne i32 %17, 0
  br i1 %18, label %56, label %19

19:                                               ; preds = %15
  %20 = load ptr, ptr %4, align 8
  %21 = load ptr, ptr %5, align 8
  call void @uv__io_stop(ptr noundef %20, ptr noundef %21, i32 noundef 8199)
  br label %22

22:                                               ; preds = %19
  %23 = load ptr, ptr %7, align 8
  %24 = getelementptr inbounds nuw %struct.uv_poll_s, ptr %23, i32 0, i32 7
  %25 = load i32, ptr %24, align 8
  %26 = and i32 %25, 4
  %27 = icmp eq i32 %26, 0
  br i1 %27, label %28, label %29

28:                                               ; preds = %22
  br label %51

29:                                               ; preds = %22
  %30 = load ptr, ptr %7, align 8
  %31 = getelementptr inbounds nuw %struct.uv_poll_s, ptr %30, i32 0, i32 7
  %32 = load i32, ptr %31, align 8
  %33 = and i32 %32, -5
  store i32 %33, ptr %31, align 8
  %34 = load ptr, ptr %7, align 8
  %35 = getelementptr inbounds nuw %struct.uv_poll_s, ptr %34, i32 0, i32 7
  %36 = load i32, ptr %35, align 8
  %37 = and i32 %36, 8
  %38 = icmp ne i32 %37, 0
  br i1 %38, label %39, label %49

39:                                               ; preds = %29
  br label %40

40:                                               ; preds = %39
  %41 = load ptr, ptr %7, align 8
  %42 = getelementptr inbounds nuw %struct.uv_poll_s, ptr %41, i32 0, i32 1
  %43 = load ptr, ptr %42, align 8
  %44 = getelementptr inbounds nuw %struct.uv_loop_s, ptr %43, i32 0, i32 1
  %45 = load i32, ptr %44, align 8
  %46 = add i32 %45, -1
  store i32 %46, ptr %44, align 8
  br label %47

47:                                               ; preds = %40
  br label %48

48:                                               ; preds = %47
  br label %49

49:                                               ; preds = %48, %29
  br label %50

50:                                               ; preds = %49
  br label %51

51:                                               ; preds = %50, %28
  %52 = load ptr, ptr %7, align 8
  %53 = getelementptr inbounds nuw %struct.uv_poll_s, ptr %52, i32 0, i32 8
  %54 = load ptr, ptr %53, align 8
  %55 = load ptr, ptr %7, align 8
  call void %54(ptr noundef %55, i32 noundef -9, i32 noundef 0)
  store i32 1, ptr %9, align 4
  br label %90

56:                                               ; preds = %15, %3
  store i32 0, ptr %8, align 4
  %57 = load i32, ptr %6, align 4
  %58 = and i32 %57, 1
  %59 = icmp ne i32 %58, 0
  br i1 %59, label %60, label %63

60:                                               ; preds = %56
  %61 = load i32, ptr %8, align 4
  %62 = or i32 %61, 1
  store i32 %62, ptr %8, align 4
  br label %63

63:                                               ; preds = %60, %56
  %64 = load i32, ptr %6, align 4
  %65 = and i32 %64, 2
  %66 = icmp ne i32 %65, 0
  br i1 %66, label %67, label %70

67:                                               ; preds = %63
  %68 = load i32, ptr %8, align 4
  %69 = or i32 %68, 8
  store i32 %69, ptr %8, align 4
  br label %70

70:                                               ; preds = %67, %63
  %71 = load i32, ptr %6, align 4
  %72 = and i32 %71, 4
  %73 = icmp ne i32 %72, 0
  br i1 %73, label %74, label %77

74:                                               ; preds = %70
  %75 = load i32, ptr %8, align 4
  %76 = or i32 %75, 2
  store i32 %76, ptr %8, align 4
  br label %77

77:                                               ; preds = %74, %70
  %78 = load i32, ptr %6, align 4
  %79 = and i32 %78, 8192
  %80 = icmp ne i32 %79, 0
  br i1 %80, label %81, label %84

81:                                               ; preds = %77
  %82 = load i32, ptr %8, align 4
  %83 = or i32 %82, 4
  store i32 %83, ptr %8, align 4
  br label %84

84:                                               ; preds = %81, %77
  %85 = load ptr, ptr %7, align 8
  %86 = getelementptr inbounds nuw %struct.uv_poll_s, ptr %85, i32 0, i32 8
  %87 = load ptr, ptr %86, align 8
  %88 = load ptr, ptr %7, align 8
  %89 = load i32, ptr %8, align 4
  call void %87(ptr noundef %88, i32 noundef 0, i32 noundef %89)
  store i32 0, ptr %9, align 4
  br label %90

90:                                               ; preds = %84, %51
  call void @llvm.lifetime.end.p0(i64 4, ptr %8) #4
  call void @llvm.lifetime.end.p0(i64 8, ptr %7) #4
  %91 = load i32, ptr %9, align 4
  switch i32 %91, label %93 [
    i32 0, label %92
    i32 1, label %92
  ]

92:                                               ; preds = %90, %90
  ret void

93:                                               ; preds = %90
  unreachable
}