; Function Attrs: nounwind uwtable
define internal void @uv__poll_io(ptr noundef %0, ptr noundef %1, i32 noundef %2) #0 {
  %4 = getelementptr inbounds i8, ptr %1, i64 -104
  %5 = and i32 %2, 10
  %or.cond = icmp eq i32 %5, 8
  br i1 %or.cond, label %6, label %23

6:                                                ; preds = %3
  tail call void @uv__io_stop(ptr noundef %0, ptr noundef %1, i32 noundef 8199) #2
  %7 = getelementptr inbounds i8, ptr %1, i64 -16
  %8 = load i32, ptr %7, align 8
  %9 = and i32 %8, 4
  %10 = icmp eq i32 %9, 0
  br i1 %10, label %20, label %11

11:                                               ; preds = %6
  %12 = and i32 %8, -5
  store i32 %12, ptr %7, align 8
  %13 = and i32 %8, 8
  %.not22 = icmp eq i32 %13, 0
  br i1 %.not22, label %20, label %14

14:                                               ; preds = %11
  %15 = getelementptr inbounds i8, ptr %1, i64 -96
  %16 = load ptr, ptr %15, align 8
  %17 = getelementptr inbounds nuw i8, ptr %16, i64 8
  %18 = load i32, ptr %17, align 8
  %19 = add i32 %18, -1
  store i32 %19, ptr %17, align 8
  br label %20

20:                                               ; preds = %14, %11, %6
  %21 = getelementptr inbounds i8, ptr %1, i64 -8
  %22 = load ptr, ptr %21, align 8
  tail call void %22(ptr noundef nonnull %4, i32 noundef -9, i32 noundef 0) #2
  br label %33

23:                                               ; preds = %3
  %24 = and i32 %2, 1
  %25 = shl i32 %2, 2
  %26 = and i32 %25, 8
  %.1 = or disjoint i32 %26, %24
  %27 = lshr i32 %2, 1
  %28 = and i32 %27, 2
  %.2 = or disjoint i32 %.1, %28
  %29 = lshr i32 %2, 11
  %30 = and i32 %29, 4
  %.3 = or disjoint i32 %.2, %30
  %31 = getelementptr inbounds i8, ptr %1, i64 -8
  %32 = load ptr, ptr %31, align 8
  tail call void %32(ptr noundef nonnull %4, i32 noundef 0, i32 noundef %.3) #2
  br label %33

33:                                               ; preds = %23, %20
  ret void
}